Certificate:
    Data:
        Version: 3 (0x2)
        Serial Number: 2 (0x2)
    Signature Algorithm: sha256WithRSAEncryption
        Issuer: C=AU, ST=Some-State, O=Internet Widgits Pty Ltd, CN=localhost
        Validity
            Not Before: Aug 31 23:37:41 2017 GMT
            Not After : Aug 29 23:37:41 2027 GMT
        Subject: C=AU, ST=Some-State, O=Internet Widgits Pty Ltd, CN=localhost-client
        Subject Public Key Info:
            Public Key Algorithm: rsaEncryption
                Public-Key: (1024 bit)
                Modulus:
                    00:b4:68:31:00:8c:79:07:c3:70:c8:24:ae:cd:41:
                    44:47:3e:e0:47:06:7a:7a:23:7a:d9:30:d7:41:c9:
                    e5:ea:d9:04:cd:39:3e:07:6d:0d:39:01:4f:e4:15:
                    ad:d7:55:0e:69:f4:1d:49:fa:4b:98:d9:19:91:9e:
                    35:73:ce:c0:3a:15:04:74:d8:74:20:ca:46:b9:da:
                    06:0f:2f:f2:10:76:a6:03:15:51:ac:3a:89:d8:38:
                    16:55:1b:36:58:ad:ee:7d:3b:b6:18:57:10:11:a1:
                    87:0e:f1:83:b7:23:77:c2:2c:57:cb:35:7f:ce:3e:
                    ed:e0:b7:1f:6c:92:56:4f:21
                Exponent: 65537 (0x10001)
        X509v3 extensions:
            X509v3 Basic Constraints: 
                CA:FALSE
            X509v3 Key Usage: 
                Digital Signature, Non Repudiation, Key Encipherment
            X509v3 Subject Key Identifier: 
                E2:53:8F:A6:30:9A:43:C6:24:84:5A:FB:4D:8F:9D:5B:C8:24:28:F8
            X509v3 Authority Key Identifier: 
                DirName:/C=AU/ST=Some-State/O=Internet Widgits Pty Ltd/CN=localhost
                serial:9A:B1:F0:96:08:02:B2:34

            X509v3 Issuer Alternative Name: 
                DNS:localhost, IP Address:127.0.0.1
    Signature Algorithm: sha256WithRSAEncryption
         4f:a3:04:df:c8:bc:7e:b1:76:a1:5f:8a:35:61:78:60:4b:a5:
         7a:7f:78:91:59:6f:d9:cb:4c:34:8f:b7:b7:dc:53:46:a3:4e:
         08:e4:6b:33:ab:1b:ec:b9:f3:68:34:7d:c1:10:21:66:fd:41:
         ef:56:98:9b:bb:d7:1d:ce:6e:ac:55:23:78:05:99:0f:f3:8a:
         df:67:28:9c:4b:2f:b1:6f:b7:eb:16:b3:0b:e0:81:ea:f6:fe:
         1d:a6:e5:66:fe:ab:6a:e3:e8:a5:a1:3d:4a:c0:47:4c:bb:6d:
         4f:68:96:88:fe:93:90:77:c0:12:5a:b9:ea:2a:fa:9c:4d:85:
         46:33
-----BEGIN CERTIFICATE-----
MIIC+zCCAmSgAwIBAgIBAjANBgkqhkiG9w0BAQsFADBZMQswCQYDVQQGEwJBVTET
MBEGA1UECAwKU29tZS1TdGF0ZTEhMB8GA1UECgwYSW50ZXJuZXQgV2lkZ2l0cyBQ
dHkgTHRkMRIwEAYDVQQDDAlsb2NhbGhvc3QwHhcNMTcwODMxMjMzNzQxWhcNMjcw
ODI5MjMzNzQxWjBgMQswCQYDVQQGEwJBVTETMBEGA1UECAwKU29tZS1TdGF0ZTEh
MB8GA1UECgwYSW50ZXJuZXQgV2lkZ2l0cyBQdHkgTHRkMRkwFwYDVQQDDBBsb2Nh
bGhvc3QtY2xpZW50MIGfMA0GCSqGSIb3DQEBAQUAA4GNADCBiQKBgQC0aDEAjHkH
w3DIJK7NQURHPuBHBnp6I3rZMNdByeXq2QTNOT4HbQ05AU/kFa3XVQ5p9B1J+kuY
2RmRnjVzzsA6FQR02HQgyka52gYPL/IQdqYDFVGsOonYOBZVGzZYre59O7YYVxAR
oYcO8YO3I3fCLFfLNX/OPu3gtx9sklZPIQIDAQABo4HLMIHIMAkGA1UdEwQCMAAw
CwYDVR0PBAQDAgXgMB0GA1UdDgQWBBTiU4+mMJpDxiSEWvtNj51byCQo+DBzBgNV
HSMEbDBqoV2kWzBZMQswCQYDVQQGEwJBVTETMBEGA1UECAwKU29tZS1TdGF0ZTEh
MB8GA1UECgwYSW50ZXJuZXQgV2lkZ2l0cyBQdHkgTHRkMRIwEAYDVQQDDAlsb2Nh
bGhvc3SCCQCasfCWCAKyNDAaBgNVHRIEEzARgglsb2NhbGhvc3SHBH8AAAEwDQYJ
KoZIhvcNAQELBQADgYEAT6ME38i8frF2oV+KNWF4YEulen94kVlv2ctMNI+3t9xT
RqNOCORrM6sb7LnzaDR9wRAhZv1B71aYm7vXHc5urFUjeAWZD/OK32conEsvsW+3
6xazC+CB6vb+HablZv6rauPopaE9SsBHTLttT2iWiP6TkHfAElq56ir6nE2FRjM=
-----END CERTIFICATE-----
