Certificate:
    Data:
        Version: 3 (0x2)
        Serial Number: 1 (0x1)
    Signature Algorithm: sha256WithRSAEncryption
        Issuer: C=AU, ST=Some-State, O=Internet Widgits Pty Ltd, CN=localhost
        Validity
            Not Before: Aug 31 23:37:36 2017 GMT
            Not After : Aug 29 23:37:36 2027 GMT
        Subject: C=AU, ST=Some-State, O=Internet Widgits Pty Ltd, CN=localhost
        Subject Public Key Info:
            Public Key Algorithm: rsaEncryption
                Public-Key: (1024 bit)
                Modulus:
                    00:cc:52:26:8f:4f:e3:cb:b8:98:3c:48:9b:e0:fe:
                    0b:f6:9d:dd:90:a5:83:a2:14:3b:45:5b:cc:cb:6e:
                    c4:15:70:02:4d:52:30:5b:ac:3d:9c:f0:c8:a3:09:
                    61:aa:fb:a9:1c:01:e7:ea:4b:b9:74:4a:f2:f1:3f:
                    d1:2e:92:a0:16:6f:41:a2:8f:e7:7e:b8:cb:ba:b0:
                    09:b2:c2:f2:07:fc:38:ab:de:c4:a2:20:57:26:d1:
                    28:76:48:91:d6:9c:68:4d:42:ba:ad:10:81:5c:ee:
                    d3:0f:d3:b2:19:89:c0:86:bf:7a:b1:bb:7f:60:bf:
                    2c:ac:b4:0a:5b:c0:0d:e9:3b
                Exponent: 65537 (0x10001)
        X509v3 extensions:
            X509v3 Basic Constraints: 
                CA:FALSE
            X509v3 Key Usage: 
                Digital Signature, Non Repudiation, Key Encipherment
            X509v3 Subject Key Identifier: 
                DA:88:D3:69:24:78:C9:79:E6:D4:36:21:2E:0A:B4:AC:C6:11:85:F3
            X509v3 Authority Key Identifier: 
                DirName:/C=AU/ST=Some-State/O=Internet Widgits Pty Ltd/CN=localhost
                serial:9A:B1:F0:96:08:02:B2:34

            X509v3 Issuer Alternative Name: 
                DNS:localhost, IP Address:127.0.0.1
    Signature Algorithm: sha256WithRSAEncryption
         60:2d:71:74:f5:03:c8:bd:7e:ed:52:6d:ed:12:35:73:bd:06:
         fe:9d:16:8a:cb:56:97:61:1c:f8:b8:42:9a:39:44:33:76:19:
         8f:85:22:c1:ce:18:19:da:e4:08:ff:1c:6f:b4:86:51:b6:07:
         2d:3e:2f:63:9a:f0:c6:1e:19:cd:9d:48:0f:f7:27:1c:03:9c:
         c3:d8:d1:20:cb:c0:5d:4f:88:73:72:c6:4b:84:f9:01:2b:a7:
         91:f1:5b:90:e8:ee:ba:e4:41:cd:75:ae:d5:12:ab:a3:89:31:
         4b:0b:bf:f6:12:61:ba:e6:8b:f2:6c:b4:a3:cc:63:63:14:dd:
         d9:9e
-----BEGIN CERTIFICATE-----
MIIC9DCCAl2gAwIBAgIBATANBgkqhkiG9w0BAQsFADBZMQswCQYDVQQGEwJBVTET
MBEGA1UECAwKU29tZS1TdGF0ZTEhMB8GA1UECgwYSW50ZXJuZXQgV2lkZ2l0cyBQ
dHkgTHRkMRIwEAYDVQQDDAlsb2NhbGhvc3QwHhcNMTcwODMxMjMzNzM2WhcNMjcw
ODI5MjMzNzM2WjBZMQswCQYDVQQGEwJBVTETMBEGA1UECAwKU29tZS1TdGF0ZTEh
MB8GA1UECgwYSW50ZXJuZXQgV2lkZ2l0cyBQdHkgTHRkMRIwEAYDVQQDDAlsb2Nh
bGhvc3QwgZ8wDQYJKoZIhvcNAQEBBQADgY0AMIGJAoGBAMxSJo9P48u4mDxIm+D+
C/ad3ZClg6IUO0VbzMtuxBVwAk1SMFusPZzwyKMJYar7qRwB5+pLuXRK8vE/0S6S
oBZvQaKP5364y7qwCbLC8gf8OKvexKIgVybRKHZIkdacaE1Cuq0QgVzu0w/TshmJ
wIa/erG7f2C/LKy0ClvADek7AgMBAAGjgcswgcgwCQYDVR0TBAIwADALBgNVHQ8E
BAMCBeAwHQYDVR0OBBYEFNqI02kkeMl55tQ2IS4KtKzGEYXzMHMGA1UdIwRsMGqh
XaRbMFkxCzAJBgNVBAYTAkFVMRMwEQYDVQQIDApTb21lLVN0YXRlMSEwHwYDVQQK
DBhJbnRlcm5ldCBXaWRnaXRzIFB0eSBMdGQxEjAQBgNVBAMMCWxvY2FsaG9zdIIJ
AJqx8JYIArI0MBoGA1UdEgQTMBGCCWxvY2FsaG9zdIcEfwAAATANBgkqhkiG9w0B
AQsFAAOBgQBgLXF09QPIvX7tUm3tEjVzvQb+nRaKy1aXYRz4uEKaOUQzdhmPhSLB
zhgZ2uQI/xxvtIZRtgctPi9jmvDGHhnNnUgP9yccA5zD2NEgy8BdT4hzcsZLhPkB
K6eR8VuQ6O665EHNda7VEqujiTFLC7/2EmG65ovybLSjzGNjFN3Zng==
-----END CERTIFICATE-----
