Certificate:
    Data:
        Version: 3 (0x2)
        Serial Number: 1 (0x1)
    Signature Algorithm: sha256WithRSAEncryption
        Issuer: C=AU, ST=Some-State, O=Internet Widgits Pty Ltd, CN=localhost
        Validity
            Not Before: May 15 09:30:44 2016 GMT
            Not After : May 13 09:30:44 2026 GMT
        Subject: C=AU, ST=Some-State, O=Internet Widgits Pty Ltd, CN=localhost
        Subject Public Key Info:
            Public Key Algorithm: rsaEncryption
                Public-Key: (1024 bit)
                Modulus:
                    00:d8:b7:36:42:df:2b:91:d6:21:60:db:d4:91:f4:
                    a4:26:54:9b:9b:f0:ac:5b:54:07:20:42:ea:6a:62:
                    4a:10:cc:90:3f:7f:4a:4c:e6:4c:f6:05:59:51:20:
                    c6:ab:3d:9f:73:a7:e9:5a:e7:50:c1:db:d3:32:30:
                    4e:c6:53:36:14:82:71:2a:b5:69:6b:90:2c:86:97:
                    c3:18:a5:69:62:8b:ab:4a:77:04:11:ff:8f:c2:11:
                    99:67:8a:88:fd:34:1b:5c:97:1b:ed:25:3c:01:8f:
                    2f:7a:b2:49:50:c4:a5:33:fc:96:99:d8:f0:ea:be:
                    49:1a:0a:98:b7:eb:93:b1:25
                Exponent: 65537 (0x10001)
        X509v3 extensions:
            X509v3 Basic Constraints: 
                CA:FALSE
            X509v3 Key Usage: 
                Digital Signature, Non Repudiation, Key Encipherment
            X509v3 Subject Key Identifier: 
                F0:04:D5:DC:B2:06:D6:C4:30:75:A3:E5:73:0F:99:88:7D:DF:D5:2A
            X509v3 Authority Key Identifier: 
                DirName:/C=AU/ST=Some-State/O=Internet Widgits Pty Ltd/CN=localhost
                serial:EB:2A:1E:BA:5A:E5:C1:7D

            X509v3 Issuer Alternative Name: 
                DNS:localhost, IP Address:127.0.0.1
    Signature Algorithm: sha256WithRSAEncryption
         32:94:72:6c:56:db:26:dc:89:cd:aa:46:c5:e0:8f:53:62:5e:
         65:d4:40:51:d0:5a:3a:a0:49:54:60:d0:0d:60:4b:0c:19:92:
         9c:70:e6:cc:97:3f:ed:0e:12:5d:e9:56:86:6a:09:20:0f:69:
         ed:3d:e7:8b:9f:59:3d:24:cd:f2:c4:5e:98:a4:24:66:84:89:
         f2:23:0e:45:62:79:ef:0f:a6:93:cd:df:f4:20:53:29:5c:bc:
         7d:8b:6d:71:3d:e0:09:a2:53:47:fe:49:cc:73:e1:51:36:49:
         20:1c:a1:fc:05:de:ff:f7:f2:74:0f:49:86:a5:0d:bf:67:8c:
         54:46
-----BEGIN CERTIFICATE-----
MIIC9DCCAl2gAwIBAgIBATANBgkqhkiG9w0BAQsFADBZMQswCQYDVQQGEwJBVTET
MBEGA1UECAwKU29tZS1TdGF0ZTEhMB8GA1UECgwYSW50ZXJuZXQgV2lkZ2l0cyBQ
dHkgTHRkMRIwEAYDVQQDDAlsb2NhbGhvc3QwHhcNMTYwNTE1MDkzMDQ0WhcNMjYw
NTEzMDkzMDQ0WjBZMQswCQYDVQQGEwJBVTETMBEGA1UECAwKU29tZS1TdGF0ZTEh
MB8GA1UECgwYSW50ZXJuZXQgV2lkZ2l0cyBQdHkgTHRkMRIwEAYDVQQDDAlsb2Nh
bGhvc3QwgZ8wDQYJKoZIhvcNAQEBBQADgY0AMIGJAoGBANi3NkLfK5HWIWDb1JH0
pCZUm5vwrFtUByBC6mpiShDMkD9/SkzmTPYFWVEgxqs9n3On6VrnUMHb0zIwTsZT
NhSCcSq1aWuQLIaXwxilaWKLq0p3BBH/j8IRmWeKiP00G1yXG+0lPAGPL3qySVDE
pTP8lpnY8Oq+SRoKmLfrk7ElAgMBAAGjgcswgcgwCQYDVR0TBAIwADALBgNVHQ8E
BAMCBeAwHQYDVR0OBBYEFPAE1dyyBtbEMHWj5XMPmYh939UqMHMGA1UdIwRsMGqh
XaRbMFkxCzAJBgNVBAYTAkFVMRMwEQYDVQQIDApTb21lLVN0YXRlMSEwHwYDVQQK
DBhJbnRlcm5ldCBXaWRnaXRzIFB0eSBMdGQxEjAQBgNVBAMMCWxvY2FsaG9zdIIJ
AOsqHrpa5cF9MBoGA1UdEgQTMBGCCWxvY2FsaG9zdIcEfwAAATANBgkqhkiG9w0B
AQsFAAOBgQAylHJsVtsm3InNqkbF4I9TYl5l1EBR0Fo6oElUYNANYEsMGZKccObM
lz/tDhJd6VaGagkgD2ntPeeLn1k9JM3yxF6YpCRmhInyIw5FYnnvD6aTzd/0IFMp
XLx9i21xPeAJolNH/knMc+FRNkkgHKH8Bd7/9/J0D0mGpQ2/Z4xURg==
-----END CERTIFICATE-----
